; Function Attrs: mustprogress uwtable
define dso_local noundef ptr @_ZN3net21QuicClientSessionBase16GetPromisedByUrlERKNSt7__cxx1112basic_stringIcSt11char_traitsIcESaIcEEE(ptr nocapture noundef nonnull readonly align 8 dereferenceable(2140) %this, ptr noundef nonnull align 8 dereferenceable(32) %url) local_unnamed_addr #0 align 2 {
entry:
  %push_promise_index_ = getelementptr inbounds i8, ptr %this, i64 2072
  %0 = load ptr, ptr %push_promise_index_, align 8
  %promised_by_url_.i = getelementptr inbounds i8, ptr %0, i64 8
  %call.i = tail call ptr @_ZNSt10_HashtableINSt7__cxx1112basic_stringIcSt11char_traitsIcESaIcEEESt4pairIKS5_PN3net22QuicClientPromisedInfoEESaISB_ENSt8__detail10_Select1stESt8equal_toIS5_ESt4hashIS5_ENSD_18_Mod_range_hashingENSD_20_Default_ranged_hashENSD_20_Prime_rehash_policyENSD_17_Hashtable_traitsILb1ELb0ELb1EEEE4findERS7_(ptr noundef nonnull align 8 dereferenceable(56) %promised_by_url_.i, ptr noundef nonnull align 8 dereferenceable(32) %url)
  %cmp.i.not = icmp eq ptr %call.i, null
  br i1 %cmp.i.not, label %return, label %if.then

if.then:                                          ; preds = %entry
  %second = getelementptr inbounds i8, ptr %call.i, i64 40
  %1 = load ptr, ptr %second, align 8
  br label %return

return:                                           ; preds = %entry, %if.then
  %retval.0 = phi ptr [ %1, %if.then ], [ null, %entry ]
  ret ptr %retval.0
}